target datalayout = "e-m:e-p270:32:32-p271:32:32-p272:64:64-i64:64-i128:128-f80:128-n8:16:32:64-S128"
target triple = "x86_64-pc-linux-gnu"

%struct.Sfm_Ntk_t_ = type { ptr, i32, i32, i32, i32, i32, ptr, ptr, ptr, %struct.Vec_Wec_t_, ptr, ptr, %struct.Vec_Wec_t_, %struct.Vec_Int_t_, %struct.Vec_Int_t_, %struct.Vec_Int_t_, %struct.Vec_Int_t_, %struct.Vec_Int_t_, ptr, ptr, %struct.Vec_Int_t_, %struct.Vec_Int_t_, i32, i32, i32, ptr, ptr, ptr, ptr, ptr, i32, i32, i32, i32, i32, i32, i32, i32, ptr, ptr, ptr, ptr, ptr, ptr, ptr, ptr, [12 x [64 x i64]], [12 x ptr], [64 x i64], [64 x i64], i32, i32, i32, i32, i32, i32, i32, i32, i32, i64, i64, i64, i64, i64, i64 }
%struct.Vec_Wec_t_ = type { i32, i32, ptr }
%struct.Vec_Int_t_ = type { i32, i32, ptr }

; Function Attrs: inlinehint nounwind uwtable
define internal ptr @Vec_WecEntry(ptr noundef %0, i32 noundef %1) #2 {
  %3 = alloca ptr, align 8
  %4 = alloca i32, align 4
  store ptr %0, ptr %3, align 8, !tbaa !29
  store i32 %1, ptr %4, align 4, !tbaa !8
  %5 = load ptr, ptr %3, align 8, !tbaa !29
  %6 = getelementptr inbounds nuw %struct.Vec_Wec_t_, ptr %5, i32 0, i32 2
  %7 = load ptr, ptr %6, align 8, !tbaa !38
  %8 = load i32, ptr %4, align 4, !tbaa !8
  %9 = sext i32 %8 to i64
  %10 = getelementptr inbounds %struct.Vec_Int_t_, ptr %7, i64 %9
  ret ptr %10
}

; Function Attrs: inlinehint nounwind uwtable
define internal i32 @Vec_IntEntry(ptr noundef %0, i32 noundef %1) #2 {
  %3 = alloca ptr, align 8
  %4 = alloca i32, align 4
  store ptr %0, ptr %3, align 8, !tbaa !28
  store i32 %1, ptr %4, align 4, !tbaa !8
  %5 = load ptr, ptr %3, align 8, !tbaa !28
  %6 = getelementptr inbounds nuw %struct.Vec_Int_t_, ptr %5, i32 0, i32 2
  %7 = load ptr, ptr %6, align 8, !tbaa !37
  %8 = load i32, ptr %4, align 4, !tbaa !8
  %9 = sext i32 %8 to i64
  %10 = getelementptr inbounds i32, ptr %7, i64 %9
  %11 = load i32, ptr %10, align 4, !tbaa !8
  ret i32 %11
}

; Function Attrs: inlinehint nounwind uwtable
define internal i32 @Vec_IntSize(ptr noundef %0) #2 {
  %2 = alloca ptr, align 8
  store ptr %0, ptr %2, align 8, !tbaa !28
  %3 = load ptr, ptr %2, align 8, !tbaa !28
  %4 = getelementptr inbounds nuw %struct.Vec_Int_t_, ptr %3, i32 0, i32 1
  %5 = load i32, ptr %4, align 4, !tbaa !24
  ret i32 %5
}

; Function Attrs: inlinehint nounwind uwtable
define internal ptr @Sfm_ObjFiArray(ptr noundef %0, i32 noundef %1) #2 {
  %3 = alloca ptr, align 8
  %4 = alloca i32, align 4
  store ptr %0, ptr %3, align 8, !tbaa !3
  store i32 %1, ptr %4, align 4, !tbaa !8
  %5 = load ptr, ptr %3, align 8, !tbaa !3
  %6 = getelementptr inbounds nuw %struct.Sfm_Ntk_t_, ptr %5, i32 0, i32 9
  %7 = load i32, ptr %4, align 4, !tbaa !8
  %8 = call ptr @Vec_WecEntry(ptr noundef %6, i32 noundef %7)
  ret ptr %8
}

; Function Attrs: inlinehint nounwind uwtable
define internal i32 @Sfm_ObjFanin(ptr noundef %0, i32 noundef %1, i32 noundef %2) #2 {
  %4 = alloca ptr, align 8
  %5 = alloca i32, align 4
  %6 = alloca i32, align 4
  store ptr %0, ptr %4, align 8, !tbaa !3
  store i32 %1, ptr %5, align 4, !tbaa !8
  store i32 %2, ptr %6, align 4, !tbaa !8
  %7 = load ptr, ptr %4, align 8, !tbaa !3
  %8 = load i32, ptr %5, align 4, !tbaa !8
  %9 = call ptr @Sfm_ObjFiArray(ptr noundef %7, i32 noundef %8)
  %10 = load i32, ptr %6, align 4, !tbaa !8
  %11 = call i32 @Vec_IntEntry(ptr noundef %9, i32 noundef %10)
  ret i32 %11
}

; Function Attrs: inlinehint nounwind uwtable
define internal i32 @Sfm_ObjFaninNum(ptr noundef %0, i32 noundef %1) #2 {
  %3 = alloca ptr, align 8
  %4 = alloca i32, align 4
  store ptr %0, ptr %3, align 8, !tbaa !3
  store i32 %1, ptr %4, align 4, !tbaa !8
  %5 = load ptr, ptr %3, align 8, !tbaa !3
  %6 = load i32, ptr %4, align 4, !tbaa !8
  %7 = call ptr @Sfm_ObjFiArray(ptr noundef %5, i32 noundef %6)
  %8 = call i32 @Vec_IntSize(ptr noundef %7)
  ret i32 %8
}

; Function Attrs: nounwind uwtable
define i32 @Sfm_ObjDeref(ptr noundef %0, i32 noundef %1) #0 {
  %3 = alloca ptr, align 8
  %4 = alloca i32, align 4
  %5 = alloca i32, align 4
  %6 = alloca i32, align 4
  %7 = alloca i32, align 4
  store ptr %0, ptr %3, align 8, !tbaa !3
  store i32 %1, ptr %4, align 4, !tbaa !8
  call void @llvm.lifetime.start.p0(i64 4, ptr %5) #7
  call void @llvm.lifetime.start.p0(i64 4, ptr %6) #7
  call void @llvm.lifetime.start.p0(i64 4, ptr %7) #7
  store i32 1, ptr %7, align 4, !tbaa !8
  store i32 0, ptr %5, align 4, !tbaa !8
  br label %8

8:                                                ; preds = %27, %2
  %9 = load i32, ptr %5, align 4, !tbaa !8
  %10 = load ptr, ptr %3, align 8, !tbaa !3
  %11 = load i32, ptr %4, align 4, !tbaa !8
  %12 = call i32 @Sfm_ObjFaninNum(ptr noundef %10, i32 noundef %11)
  %13 = icmp slt i32 %9, %12
  br i1 %13, label %14, label %19

14:                                               ; preds = %8
  %15 = load ptr, ptr %3, align 8, !tbaa !3
  %16 = load i32, ptr %4, align 4, !tbaa !8
  %17 = load i32, ptr %5, align 4, !tbaa !8
  %18 = call i32 @Sfm_ObjFanin(ptr noundef %15, i32 noundef %16, i32 noundef %17)
  store i32 %18, ptr %6, align 4, !tbaa !8
  br label %19

19:                                               ; preds = %14, %8
  %20 = phi i1 [ false, %8 ], [ true, %14 ]
  br i1 %20, label %21, label %30

21:                                               ; preds = %19
  %22 = load ptr, ptr %3, align 8, !tbaa !3
  %23 = load i32, ptr %6, align 4, !tbaa !8
  %24 = call i32 @Sfm_ObjDeref_rec(ptr noundef %22, i32 noundef %23)
  %25 = load i32, ptr %7, align 4, !tbaa !8
  %26 = add nsw i32 %25, %24
  store i32 %26, ptr %7, align 4, !tbaa !8
  br label %27

27:                                               ; preds = %21
  %28 = load i32, ptr %5, align 4, !tbaa !8
  %29 = add nsw i32 %28, 1
  store i32 %29, ptr %5, align 4, !tbaa !8
  br label %8, !llvm.loop !27

30:                                               ; preds = %19
  %31 = load i32, ptr %7, align 4, !tbaa !8
  call void @llvm.lifetime.end.p0(i64 4, ptr %7) #7
  call void @llvm.lifetime.end.p0(i64 4, ptr %6) #7
  call void @llvm.lifetime.end.p0(i64 4, ptr %5) #7
  ret i32 %31
}